target datalayout = "e-m:e-p270:32:32-p271:32:32-p272:64:64-i64:64-i128:128-f80:128-n8:16:32:64-S128"
target triple = "x86_64-pc-linux-gnu"

%struct.expert_field = type { i32, i32 }
%struct._asn1_ctx_t = type { i32, i32, i8, ptr, ptr, ptr, ptr, ptr, %struct.anon.0, %struct.anon.3, %struct.anon.4, ptr }
%struct.anon.0 = type { i32, i8, i8, i8, ptr, ptr, i32, i32, ptr, ptr, ptr, %union.anon }
%union.anon = type { %struct.anon.1 }
%struct.anon.1 = type { ptr }
%struct.anon.3 = type { ptr, ptr, ptr }
%struct.anon.4 = type { i32, i8, ptr, i32, i32, ptr, ptr, ptr, %union.anon.5 }
%union.anon.5 = type { %struct.anon.6 }
%struct.anon.6 = type { ptr }
%struct.anon.2 = type { ptr }

@ei_per_external_type = internal global %struct.expert_field zeroinitializer, align 4

; Function Attrs: null_pointer_is_valid sspstrong uwtable
define internal i32 @dissect_per_T_octet_aligned(ptr noundef %0, i32 noundef %1, ptr noundef %2, ptr noundef %3, i32 noundef %4) #0 {
  %6 = alloca ptr, align 8
  %7 = alloca i32, align 4
  %8 = alloca ptr, align 8
  %9 = alloca ptr, align 8
  %10 = alloca i32, align 4
  store ptr %0, ptr %6, align 8
  store i32 %1, ptr %7, align 4
  store ptr %2, ptr %8, align 8
  store ptr %3, ptr %9, align 8
  store i32 %4, ptr %10, align 4
  %11 = load ptr, ptr %6, align 8
  %12 = load i32, ptr %7, align 4
  %13 = load ptr, ptr %8, align 8
  %14 = load ptr, ptr %9, align 8
  %15 = load i32, ptr %10, align 4
  %16 = load ptr, ptr %8, align 8
  %17 = getelementptr inbounds nuw %struct._asn1_ctx_t, ptr %16, i32 0, i32 8
  %18 = getelementptr inbounds nuw %struct.anon.0, ptr %17, i32 0, i32 9
  %19 = call i32 @dissect_per_octet_string(ptr noundef %11, i32 noundef %12, ptr noundef %13, ptr noundef %14, i32 noundef %15, i32 noundef -1, i32 noundef -1, i1 noundef zeroext false, ptr noundef %18)
  store i32 %19, ptr %7, align 4
  %20 = load ptr, ptr %8, align 8
  %21 = getelementptr inbounds nuw %struct._asn1_ctx_t, ptr %20, i32 0, i32 8
  %22 = getelementptr inbounds nuw %struct.anon.0, ptr %21, i32 0, i32 9
  %23 = load ptr, ptr %22, align 8
  %24 = icmp ne ptr %23, null
  br i1 %24, label %25, label %62

25:                                               ; preds = %5
  %26 = load ptr, ptr %8, align 8
  %27 = getelementptr inbounds nuw %struct._asn1_ctx_t, ptr %26, i32 0, i32 8
  %28 = getelementptr inbounds nuw %struct.anon.0, ptr %27, i32 0, i32 11
  %29 = getelementptr inbounds nuw %struct.anon.2, ptr %28, i32 0, i32 0
  %30 = load ptr, ptr %29, align 8
  %31 = icmp ne ptr %30, null
  br i1 %31, label %32, label %49

32:                                               ; preds = %25
  %33 = load ptr, ptr %8, align 8
  %34 = getelementptr inbounds nuw %struct._asn1_ctx_t, ptr %33, i32 0, i32 8
  %35 = getelementptr inbounds nuw %struct.anon.0, ptr %34, i32 0, i32 11
  %36 = getelementptr inbounds nuw %struct.anon.2, ptr %35, i32 0, i32 0
  %37 = load ptr, ptr %36, align 8
  %38 = load ptr, ptr %8, align 8
  %39 = getelementptr inbounds nuw %struct._asn1_ctx_t, ptr %38, i32 0, i32 8
  %40 = getelementptr inbounds nuw %struct.anon.0, ptr %39, i32 0, i32 9
  %41 = load ptr, ptr %40, align 8
  %42 = load ptr, ptr %8, align 8
  %43 = load ptr, ptr %9, align 8
  %44 = load ptr, ptr %8, align 8
  %45 = getelementptr inbounds nuw %struct._asn1_ctx_t, ptr %44, i32 0, i32 8
  %46 = getelementptr inbounds nuw %struct.anon.0, ptr %45, i32 0, i32 0
  %47 = load i32, ptr %46, align 8
  %48 = call i32 %37(ptr noundef %41, i32 noundef 0, ptr noundef %42, ptr noundef %43, i32 noundef %47)
  br label %61

49:                                               ; preds = %25
  %50 = load ptr, ptr %9, align 8
  %51 = load ptr, ptr %8, align 8
  %52 = getelementptr inbounds nuw %struct._asn1_ctx_t, ptr %51, i32 0, i32 3
  %53 = load ptr, ptr %52, align 8
  %54 = load ptr, ptr %8, align 8
  %55 = getelementptr inbounds nuw %struct._asn1_ctx_t, ptr %54, i32 0, i32 8
  %56 = getelementptr inbounds nuw %struct.anon.0, ptr %55, i32 0, i32 9
  %57 = load ptr, ptr %56, align 8
  %58 = call ptr @proto_tree_add_expert(ptr noundef %50, ptr noundef %53, ptr noundef @ei_per_external_type, ptr noundef %57, i32 noundef 0, i32 noundef -1)
  %59 = load ptr, ptr %8, align 8
  %60 = getelementptr inbounds nuw %struct._asn1_ctx_t, ptr %59, i32 0, i32 4
  store ptr %58, ptr %60, align 8
  br label %61

61:                                               ; preds = %49, %32
  br label %62

62:                                               ; preds = %61, %5
  %63 = load i32, ptr %7, align 4
  ret i32 %63
}