; Function Attrs: null_pointer_is_valid sspstrong uwtable
define internal i32 @dissect_per_T_octet_aligned(ptr noundef %0, i32 noundef %1, ptr noundef %2, ptr noundef %3, i32 noundef %4) #0 {
  %6 = getelementptr inbounds nuw i8, ptr %2, i64 56
  %7 = getelementptr inbounds nuw i8, ptr %2, i64 96
  %8 = tail call i32 @dissect_per_octet_string(ptr noundef %0, i32 noundef %1, ptr noundef %2, ptr noundef %3, i32 noundef %4, i32 noundef -1, i32 noundef -1, i1 noundef zeroext false, ptr noundef nonnull %7)
  %9 = load ptr, ptr %7, align 8
  %.not = icmp eq ptr %9, null
  br i1 %.not, label %21, label %10

10:                                               ; preds = %5
  %11 = getelementptr inbounds nuw i8, ptr %2, i64 112
  %12 = load ptr, ptr %11, align 8
  %.not18 = icmp eq ptr %12, null
  br i1 %.not18, label %16, label %13

13:                                               ; preds = %10
  %14 = load i32, ptr %6, align 8
  %15 = tail call i32 %12(ptr noundef nonnull %9, i32 noundef 0, ptr noundef %2, ptr noundef %3, i32 noundef %14)
  br label %21

16:                                               ; preds = %10
  %17 = getelementptr inbounds nuw i8, ptr %2, i64 16
  %18 = load ptr, ptr %17, align 8
  %19 = tail call ptr @proto_tree_add_expert(ptr noundef %3, ptr noundef %18, ptr noundef nonnull @ei_per_external_type, ptr noundef nonnull %9, i32 noundef 0, i32 noundef -1)
  %20 = getelementptr inbounds nuw i8, ptr %2, i64 24
  store ptr %19, ptr %20, align 8
  br label %21

21:                                               ; preds = %13, %16, %5
  ret i32 %8
}